target datalayout = "e-m:e-p270:32:32-p271:32:32-p272:64:64-i64:64-i128:128-f80:128-n8:16:32:64-S128"
target triple = "x86_64-pc-linux-gnu"

%struct.DECODER_CACHE = type { ptr, ptr }

@.str = private unnamed_addr constant [47 x i8] c"../openssl/crypto/encode_decode/decoder_pkey.c\00", align 1

; Function Attrs: inlinehint nounwind uwtable
define internal void @lh_DECODER_CACHE_ENTRY_free(ptr noundef %0) #3 {
  %2 = alloca ptr, align 8
  store ptr %0, ptr %2, align 8, !tbaa !29
  %3 = load ptr, ptr %2, align 8, !tbaa !29
  call void @OPENSSL_LH_free(ptr noundef %3)
  ret void
}

; Function Attrs: inlinehint nounwind uwtable
define internal void @lh_DECODER_CACHE_ENTRY_doall(ptr noundef %0, ptr noundef %1) #3 {
  %3 = alloca ptr, align 8
  %4 = alloca ptr, align 8
  store ptr %0, ptr %3, align 8, !tbaa !29
  store ptr %1, ptr %4, align 8, !tbaa !14
  %5 = load ptr, ptr %3, align 8, !tbaa !29
  %6 = load ptr, ptr %4, align 8, !tbaa !14
  call void @OPENSSL_LH_doall(ptr noundef %5, ptr noundef %6)
  ret void
}

; Function Attrs: nounwind uwtable
define void @ossl_decoder_cache_free(ptr noundef %0) #0 {
  %2 = alloca ptr, align 8
  %3 = alloca ptr, align 8
  store ptr %0, ptr %2, align 8, !tbaa !14
  call void @llvm.lifetime.start.p0(i64 8, ptr %3) #7
  %4 = load ptr, ptr %2, align 8, !tbaa !14
  store ptr %4, ptr %3, align 8, !tbaa !14
  %5 = load ptr, ptr %3, align 8, !tbaa !14
  %6 = getelementptr inbounds nuw %struct.DECODER_CACHE, ptr %5, i32 0, i32 1
  %7 = load ptr, ptr %6, align 8, !tbaa !20
  call void @lh_DECODER_CACHE_ENTRY_doall(ptr noundef %7, ptr noundef @decoder_cache_entry_free)
  %8 = load ptr, ptr %3, align 8, !tbaa !14
  %9 = getelementptr inbounds nuw %struct.DECODER_CACHE, ptr %8, i32 0, i32 1
  %10 = load ptr, ptr %9, align 8, !tbaa !20
  call void @lh_DECODER_CACHE_ENTRY_free(ptr noundef %10)
  %11 = load ptr, ptr %3, align 8, !tbaa !14
  %12 = getelementptr inbounds nuw %struct.DECODER_CACHE, ptr %11, i32 0, i32 0
  %13 = load ptr, ptr %12, align 8, !tbaa !17
  call void @CRYPTO_THREAD_lock_free(ptr noundef %13)
  %14 = load ptr, ptr %3, align 8, !tbaa !14
  call void @CRYPTO_free(ptr noundef %14, ptr noundef @.str, i32 noundef 718)
  call void @llvm.lifetime.end.p0(i64 8, ptr %3) #7
  ret void
}