; Function Attrs: nounwind uwtable
define void @ossl_decoder_cache_free(ptr noundef %0) local_unnamed_addr #0 {
  %2 = getelementptr inbounds nuw i8, ptr %0, i64 8
  %3 = load ptr, ptr %2, align 8, !tbaa !9
  tail call void @OPENSSL_LH_doall(ptr noundef %3, ptr noundef nonnull @decoder_cache_entry_free) #7
  %4 = load ptr, ptr %2, align 8, !tbaa !9
  tail call void @OPENSSL_LH_free(ptr noundef %4) #7
  %5 = load ptr, ptr %0, align 8, !tbaa !3
  tail call void @CRYPTO_THREAD_lock_free(ptr noundef %5) #7
  tail call void @CRYPTO_free(ptr noundef nonnull %0, ptr noundef nonnull @.str, i32 noundef 718) #7
  ret void
}